target datalayout = "e-m:e-p270:32:32-p271:32:32-p272:64:64-i64:64-i128:128-f80:128-n8:16:32:64-S128"
target triple = "x86_64-pc-linux-gnu"

%struct.curl_mimepart = type { ptr, ptr, i32, i32, ptr, ptr, ptr, ptr, ptr, ptr, ptr, ptr, ptr, ptr, ptr, i64, %struct.mime_state, ptr, %struct.mime_encoder_state, i64 }
%struct.mime_state = type { i32, ptr, i64 }
%struct.mime_encoder_state = type { i64, i64, i64, [256 x i8] }

; Function Attrs: nounwind uwtable
define internal i32 @mime_mem_seek(ptr noundef %0, i64 noundef %1, i32 noundef %2) #0 {
  %4 = alloca i32, align 4
  %5 = alloca ptr, align 8
  %6 = alloca i64, align 8
  %7 = alloca i32, align 4
  %8 = alloca ptr, align 8
  %9 = alloca i32, align 4
  store ptr %0, ptr %5, align 8, !tbaa !22
  store i64 %1, ptr %6, align 8, !tbaa !50
  store i32 %2, ptr %7, align 4, !tbaa !45
  call void @llvm.lifetime.start.p0(i64 8, ptr %8) #8
  %10 = load ptr, ptr %5, align 8, !tbaa !22
  store ptr %10, ptr %8, align 8, !tbaa !4
  %11 = load i32, ptr %7, align 4, !tbaa !45
  switch i32 %11, label %25 [
    i32 1, label %12
    i32 2, label %19
  ]

12:                                               ; preds = %3
  %13 = load ptr, ptr %8, align 8, !tbaa !4
  %14 = getelementptr inbounds nuw %struct.curl_mimepart, ptr %13, i32 0, i32 16
  %15 = getelementptr inbounds nuw %struct.mime_state, ptr %14, i32 0, i32 2
  %16 = load i64, ptr %15, align 8, !tbaa !62
  %17 = load i64, ptr %6, align 8, !tbaa !50
  %18 = add nsw i64 %17, %16
  store i64 %18, ptr %6, align 8, !tbaa !50
  br label %25

19:                                               ; preds = %3
  %20 = load ptr, ptr %8, align 8, !tbaa !4
  %21 = getelementptr inbounds nuw %struct.curl_mimepart, ptr %20, i32 0, i32 15
  %22 = load i64, ptr %21, align 8, !tbaa !32
  %23 = load i64, ptr %6, align 8, !tbaa !50
  %24 = add nsw i64 %23, %22
  store i64 %24, ptr %6, align 8, !tbaa !50
  br label %25

25:                                               ; preds = %3, %19, %12
  %26 = load i64, ptr %6, align 8, !tbaa !50
  %27 = icmp slt i64 %26, 0
  br i1 %27, label %34, label %28

28:                                               ; preds = %25
  %29 = load i64, ptr %6, align 8, !tbaa !50
  %30 = load ptr, ptr %8, align 8, !tbaa !4
  %31 = getelementptr inbounds nuw %struct.curl_mimepart, ptr %30, i32 0, i32 15
  %32 = load i64, ptr %31, align 8, !tbaa !32
  %33 = icmp sgt i64 %29, %32
  br i1 %33, label %34, label %35

34:                                               ; preds = %28, %25
  store i32 1, ptr %4, align 4
  store i32 1, ptr %9, align 4
  br label %40

35:                                               ; preds = %28
  %36 = load i64, ptr %6, align 8, !tbaa !50
  %37 = load ptr, ptr %8, align 8, !tbaa !4
  %38 = getelementptr inbounds nuw %struct.curl_mimepart, ptr %37, i32 0, i32 16
  %39 = getelementptr inbounds nuw %struct.mime_state, ptr %38, i32 0, i32 2
  store i64 %36, ptr %39, align 8, !tbaa !62
  store i32 0, ptr %4, align 4
  store i32 1, ptr %9, align 4
  br label %40

40:                                               ; preds = %35, %34
  call void @llvm.lifetime.end.p0(i64 8, ptr %8) #8
  %41 = load i32, ptr %4, align 4
  ret i32 %41
}