; Function Attrs: mustprogress nofree norecurse nosync nounwind willreturn memory(argmem: readwrite) uwtable
define internal range(i32 0, 2) i32 @mime_mem_seek(ptr noundef captures(none) %0, i64 noundef %1, i32 noundef %2) #7 {
  switch i32 %2, label %8 [
    i32 1, label %.sink.split
    i32 2, label %4
  ]

4:                                                ; preds = %3
  br label %.sink.split

.sink.split:                                      ; preds = %3, %4
  %.sink = phi i64 [ 112, %4 ], [ 136, %3 ]
  %5 = getelementptr inbounds nuw i8, ptr %0, i64 %.sink
  %6 = load i64, ptr %5, align 8, !tbaa !53
  %7 = add nsw i64 %6, %1
  br label %8

8:                                                ; preds = %.sink.split, %3
  %.011 = phi i64 [ %1, %3 ], [ %7, %.sink.split ]
  %9 = icmp slt i64 %.011, 0
  br i1 %9, label %16, label %10

10:                                               ; preds = %8
  %11 = getelementptr inbounds nuw i8, ptr %0, i64 112
  %12 = load i64, ptr %11, align 8, !tbaa !22
  %13 = icmp sgt i64 %.011, %12
  br i1 %13, label %16, label %14

14:                                               ; preds = %10
  %15 = getelementptr inbounds nuw i8, ptr %0, i64 136
  store i64 %.011, ptr %15, align 8, !tbaa !52
  br label %16

16:                                               ; preds = %8, %10, %14
  %.0 = phi i32 [ 0, %14 ], [ 1, %10 ], [ 1, %8 ]
  ret i32 %.0
}